target datalayout = "e-m:e-p270:32:32-p271:32:32-p272:64:64-i64:64-i128:128-f80:128-n8:16:32:64-S128"
target triple = "x86_64-pc-linux-gnu"

%struct.jpeg_compress_struct = type { ptr, ptr, ptr, ptr, i32, i32, ptr, i32, i32, i32, i32, double, i32, i32, i32, ptr, [4 x ptr], [4 x ptr], [4 x ptr], [16 x i8], [16 x i8], [16 x i8], i32, ptr, i32, i32, i32, i32, i32, i32, i32, i32, i32, i8, i8, i8, i16, i16, i32, i32, i32, i32, i32, i32, i32, [4 x ptr], i32, i32, i32, [10 x i32], i32, i32, i32, i32, ptr, ptr, ptr, ptr, ptr, ptr, ptr, ptr, ptr, ptr, i32 }
%struct.huff_entropy_encoder = type { %struct.jpeg_entropy_encoder, %struct.savable_state, i32, i32, [4 x ptr], [4 x ptr], [4 x ptr], [4 x ptr], i32 }
%struct.jpeg_entropy_encoder = type { ptr, ptr, ptr, ptr }
%struct.savable_state = type { %union.anon.0, i32, [4 x i32] }
%union.anon.0 = type { i64 }
%struct.jpeg_component_info = type { i32, i32, i32, i32, i32, i32, i32, i32, i32, i32, i32, i32, i32, i32, i32, i32, i32, i32, i32, ptr, ptr }

; Function Attrs: nounwind uwtable
define internal void @finish_pass_gather(ptr noundef %0) #0 {
  %2 = alloca ptr, align 8
  %3 = alloca ptr, align 8
  %4 = alloca i32, align 4
  %5 = alloca i32, align 4
  %6 = alloca i32, align 4
  %7 = alloca ptr, align 8
  %8 = alloca ptr, align 8
  %9 = alloca [4 x i32], align 16
  %10 = alloca [4 x i32], align 16
  store ptr %0, ptr %2, align 8, !tbaa !3
  call void @llvm.lifetime.start.p0(i64 8, ptr %3) #5
  %11 = load ptr, ptr %2, align 8, !tbaa !3
  %12 = getelementptr inbounds nuw %struct.jpeg_compress_struct, ptr %11, i32 0, i32 62
  %13 = load ptr, ptr %12, align 8, !tbaa !63
  store ptr %13, ptr %3, align 8, !tbaa !10
  call void @llvm.lifetime.start.p0(i64 4, ptr %4) #5
  call void @llvm.lifetime.start.p0(i64 4, ptr %5) #5
  call void @llvm.lifetime.start.p0(i64 4, ptr %6) #5
  call void @llvm.lifetime.start.p0(i64 8, ptr %7) #5
  call void @llvm.lifetime.start.p0(i64 8, ptr %8) #5
  call void @llvm.lifetime.start.p0(i64 16, ptr %9) #5
  call void @llvm.lifetime.start.p0(i64 16, ptr %10) #5
  %14 = getelementptr inbounds [4 x i32], ptr %9, i64 0, i64 0
  call void @llvm.memset.p0.i64(ptr align 16 %14, i8 0, i64 16, i1 false)
  %15 = getelementptr inbounds [4 x i32], ptr %10, i64 0, i64 0
  call void @llvm.memset.p0.i64(ptr align 16 %15, i8 0, i64 16, i1 false)
  store i32 0, ptr %4, align 4, !tbaa !8
  br label %16

16:                                               ; preds = %99, %1
  %17 = load i32, ptr %4, align 4, !tbaa !8
  %18 = load ptr, ptr %2, align 8, !tbaa !3
  %19 = getelementptr inbounds nuw %struct.jpeg_compress_struct, ptr %18, i32 0, i32 44
  %20 = load i32, ptr %19, align 4, !tbaa !72
  %21 = icmp slt i32 %17, %20
  br i1 %21, label %22, label %102

22:                                               ; preds = %16
  %23 = load ptr, ptr %2, align 8, !tbaa !3
  %24 = getelementptr inbounds nuw %struct.jpeg_compress_struct, ptr %23, i32 0, i32 45
  %25 = load i32, ptr %4, align 4, !tbaa !8
  %26 = sext i32 %25 to i64
  %27 = getelementptr inbounds [4 x ptr], ptr %24, i64 0, i64 %26
  %28 = load ptr, ptr %27, align 8, !tbaa !10
  store ptr %28, ptr %7, align 8, !tbaa !10
  %29 = load ptr, ptr %7, align 8, !tbaa !10
  %30 = getelementptr inbounds nuw %struct.jpeg_component_info, ptr %29, i32 0, i32 5
  %31 = load i32, ptr %30, align 4, !tbaa !73
  store i32 %31, ptr %5, align 4, !tbaa !8
  %32 = load ptr, ptr %7, align 8, !tbaa !10
  %33 = getelementptr inbounds nuw %struct.jpeg_component_info, ptr %32, i32 0, i32 6
  %34 = load i32, ptr %33, align 8, !tbaa !75
  store i32 %34, ptr %6, align 4, !tbaa !8
  %35 = load i32, ptr %5, align 4, !tbaa !8
  %36 = sext i32 %35 to i64
  %37 = getelementptr inbounds [4 x i32], ptr %9, i64 0, i64 %36
  %38 = load i32, ptr %37, align 4, !tbaa !8
  %39 = icmp ne i32 %38, 0
  br i1 %39, label %66, label %40

40:                                               ; preds = %22
  %41 = load ptr, ptr %2, align 8, !tbaa !3
  %42 = getelementptr inbounds nuw %struct.jpeg_compress_struct, ptr %41, i32 0, i32 17
  %43 = load i32, ptr %5, align 4, !tbaa !8
  %44 = sext i32 %43 to i64
  %45 = getelementptr inbounds [4 x ptr], ptr %42, i64 0, i64 %44
  store ptr %45, ptr %8, align 8, !tbaa !10
  %46 = load ptr, ptr %8, align 8, !tbaa !10
  %47 = load ptr, ptr %46, align 8, !tbaa !10
  %48 = icmp eq ptr %47, null
  br i1 %48, label %49, label %53

49:                                               ; preds = %40
  %50 = load ptr, ptr %2, align 8, !tbaa !3
  %51 = call ptr @jpeg_alloc_huff_table(ptr noundef %50)
  %52 = load ptr, ptr %8, align 8, !tbaa !10
  store ptr %51, ptr %52, align 8, !tbaa !10
  br label %53

53:                                               ; preds = %49, %40
  %54 = load ptr, ptr %2, align 8, !tbaa !3
  %55 = load ptr, ptr %8, align 8, !tbaa !10
  %56 = load ptr, ptr %55, align 8, !tbaa !10
  %57 = load ptr, ptr %3, align 8, !tbaa !10
  %58 = getelementptr inbounds nuw %struct.huff_entropy_encoder, ptr %57, i32 0, i32 6
  %59 = load i32, ptr %5, align 4, !tbaa !8
  %60 = sext i32 %59 to i64
  %61 = getelementptr inbounds [4 x ptr], ptr %58, i64 0, i64 %60
  %62 = load ptr, ptr %61, align 8, !tbaa !46
  call void @jpeg_gen_optimal_table(ptr noundef %54, ptr noundef %56, ptr noundef %62)
  %63 = load i32, ptr %5, align 4, !tbaa !8
  %64 = sext i32 %63 to i64
  %65 = getelementptr inbounds [4 x i32], ptr %9, i64 0, i64 %64
  store i32 1, ptr %65, align 4, !tbaa !8
  br label %66

66:                                               ; preds = %53, %22
  %67 = load i32, ptr %6, align 4, !tbaa !8
  %68 = sext i32 %67 to i64
  %69 = getelementptr inbounds [4 x i32], ptr %10, i64 0, i64 %68
  %70 = load i32, ptr %69, align 4, !tbaa !8
  %71 = icmp ne i32 %70, 0
  br i1 %71, label %98, label %72

72:                                               ; preds = %66
  %73 = load ptr, ptr %2, align 8, !tbaa !3
  %74 = getelementptr inbounds nuw %struct.jpeg_compress_struct, ptr %73, i32 0, i32 18
  %75 = load i32, ptr %6, align 4, !tbaa !8
  %76 = sext i32 %75 to i64
  %77 = getelementptr inbounds [4 x ptr], ptr %74, i64 0, i64 %76
  store ptr %77, ptr %8, align 8, !tbaa !10
  %78 = load ptr, ptr %8, align 8, !tbaa !10
  %79 = load ptr, ptr %78, align 8, !tbaa !10
  %80 = icmp eq ptr %79, null
  br i1 %80, label %81, label %85

81:                                               ; preds = %72
  %82 = load ptr, ptr %2, align 8, !tbaa !3
  %83 = call ptr @jpeg_alloc_huff_table(ptr noundef %82)
  %84 = load ptr, ptr %8, align 8, !tbaa !10
  store ptr %83, ptr %84, align 8, !tbaa !10
  br label %85

85:                                               ; preds = %81, %72
  %86 = load ptr, ptr %2, align 8, !tbaa !3
  %87 = load ptr, ptr %8, align 8, !tbaa !10
  %88 = load ptr, ptr %87, align 8, !tbaa !10
  %89 = load ptr, ptr %3, align 8, !tbaa !10
  %90 = getelementptr inbounds nuw %struct.huff_entropy_encoder, ptr %89, i32 0, i32 7
  %91 = load i32, ptr %6, align 4, !tbaa !8
  %92 = sext i32 %91 to i64
  %93 = getelementptr inbounds [4 x ptr], ptr %90, i64 0, i64 %92
  %94 = load ptr, ptr %93, align 8, !tbaa !46
  call void @jpeg_gen_optimal_table(ptr noundef %86, ptr noundef %88, ptr noundef %94)
  %95 = load i32, ptr %6, align 4, !tbaa !8
  %96 = sext i32 %95 to i64
  %97 = getelementptr inbounds [4 x i32], ptr %10, i64 0, i64 %96
  store i32 1, ptr %97, align 4, !tbaa !8
  br label %98

98:                                               ; preds = %85, %66
  br label %99

99:                                               ; preds = %98
  %100 = load i32, ptr %4, align 4, !tbaa !8
  %101 = add nsw i32 %100, 1
  store i32 %101, ptr %4, align 4, !tbaa !8
  br label %16, !llvm.loop !89

102:                                              ; preds = %16
  call void @llvm.lifetime.end.p0(i64 16, ptr %10) #5
  call void @llvm.lifetime.end.p0(i64 16, ptr %9) #5
  call void @llvm.lifetime.end.p0(i64 8, ptr %8) #5
  call void @llvm.lifetime.end.p0(i64 8, ptr %7) #5
  call void @llvm.lifetime.end.p0(i64 4, ptr %6) #5
  call void @llvm.lifetime.end.p0(i64 4, ptr %5) #5
  call void @llvm.lifetime.end.p0(i64 4, ptr %4) #5
  call void @llvm.lifetime.end.p0(i64 8, ptr %3) #5
  ret void
}