; Function Attrs: nounwind uwtable
define internal void @finish_pass_gather(ptr noundef %0) #0 {
  %2 = alloca [4 x i32], align 16
  %3 = alloca [4 x i32], align 16
  %4 = getelementptr inbounds nuw i8, ptr %0, i64 496
  %5 = load ptr, ptr %4, align 8, !tbaa !57
  call void @llvm.lifetime.start.p0(i64 16, ptr nonnull %2) #6
  call void @llvm.lifetime.start.p0(i64 16, ptr nonnull %3) #6
  call void @llvm.memset.p0.i64(ptr noundef nonnull align 16 dereferenceable(16) %2, i8 0, i64 16, i1 false)
  call void @llvm.memset.p0.i64(ptr noundef nonnull align 16 dereferenceable(16) %3, i8 0, i64 16, i1 false)
  %6 = getelementptr inbounds nuw i8, ptr %0, i64 324
  %7 = load i32, ptr %6, align 4, !tbaa !68
  %8 = icmp sgt i32 %7, 0
  br i1 %8, label %.lr.ph, label %._crit_edge

.lr.ph:                                           ; preds = %1
  %9 = getelementptr inbounds nuw i8, ptr %0, i64 328
  %10 = getelementptr inbounds nuw i8, ptr %0, i64 128
  %11 = getelementptr inbounds nuw i8, ptr %5, i64 136
  %12 = getelementptr inbounds nuw i8, ptr %0, i64 160
  %13 = getelementptr inbounds nuw i8, ptr %5, i64 168
  br label %14

14:                                               ; preds = %.lr.ph, %48
  %indvars.iv = phi i64 [ 0, %.lr.ph ], [ %indvars.iv.next, %48 ]
  %15 = getelementptr inbounds nuw [4 x ptr], ptr %9, i64 0, i64 %indvars.iv
  %16 = load ptr, ptr %15, align 8, !tbaa !30
  %17 = getelementptr inbounds nuw i8, ptr %16, i64 20
  %18 = load i32, ptr %17, align 4, !tbaa !69
  %19 = getelementptr inbounds nuw i8, ptr %16, i64 24
  %20 = load i32, ptr %19, align 8, !tbaa !71
  %21 = sext i32 %18 to i64
  %22 = getelementptr inbounds [4 x i32], ptr %2, i64 0, i64 %21
  %23 = load i32, ptr %22, align 4, !tbaa !36
  %.not = icmp eq i32 %23, 0
  br i1 %.not, label %24, label %34

24:                                               ; preds = %14
  %25 = getelementptr inbounds [4 x ptr], ptr %10, i64 0, i64 %21
  %26 = load ptr, ptr %25, align 8, !tbaa !30
  %27 = icmp eq ptr %26, null
  br i1 %27, label %28, label %30

28:                                               ; preds = %24
  %29 = tail call ptr @jpeg_alloc_huff_table(ptr noundef nonnull %0) #6
  store ptr %29, ptr %25, align 8, !tbaa !30
  br label %30

30:                                               ; preds = %28, %24
  %31 = phi ptr [ %29, %28 ], [ %26, %24 ]
  %32 = getelementptr inbounds [4 x ptr], ptr %11, i64 0, i64 %21
  %33 = load ptr, ptr %32, align 8, !tbaa !62
  tail call void @jpeg_gen_optimal_table(ptr noundef nonnull %0, ptr noundef %31, ptr noundef %33)
  store i32 1, ptr %22, align 4, !tbaa !36
  br label %34

34:                                               ; preds = %30, %14
  %35 = sext i32 %20 to i64
  %36 = getelementptr inbounds [4 x i32], ptr %3, i64 0, i64 %35
  %37 = load i32, ptr %36, align 4, !tbaa !36
  %.not29 = icmp eq i32 %37, 0
  br i1 %.not29, label %38, label %48

38:                                               ; preds = %34
  %39 = getelementptr inbounds [4 x ptr], ptr %12, i64 0, i64 %35
  %40 = load ptr, ptr %39, align 8, !tbaa !30
  %41 = icmp eq ptr %40, null
  br i1 %41, label %42, label %44

42:                                               ; preds = %38
  %43 = tail call ptr @jpeg_alloc_huff_table(ptr noundef nonnull %0) #6
  store ptr %43, ptr %39, align 8, !tbaa !30
  br label %44

44:                                               ; preds = %42, %38
  %45 = phi ptr [ %43, %42 ], [ %40, %38 ]
  %46 = getelementptr inbounds [4 x ptr], ptr %13, i64 0, i64 %35
  %47 = load ptr, ptr %46, align 8, !tbaa !62
  tail call void @jpeg_gen_optimal_table(ptr noundef nonnull %0, ptr noundef %45, ptr noundef %47)
  store i32 1, ptr %36, align 4, !tbaa !36
  br label %48

48:                                               ; preds = %34, %44
  %indvars.iv.next = add nuw nsw i64 %indvars.iv, 1
  %49 = load i32, ptr %6, align 4, !tbaa !68
  %50 = sext i32 %49 to i64
  %51 = icmp slt i64 %indvars.iv.next, %50
  br i1 %51, label %14, label %._crit_edge, !llvm.loop !87

._crit_edge:                                      ; preds = %48, %1
  call void @llvm.lifetime.end.p0(i64 16, ptr nonnull %3) #6
  call void @llvm.lifetime.end.p0(i64 16, ptr nonnull %2) #6
  ret void
}